target datalayout = "e-m:e-p270:32:32-p271:32:32-p272:64:64-i64:64-i128:128-f80:128-n8:16:32:64-S128"
target triple = "x86_64-pc-linux-gnu"

%struct.mbedtls_cipher_definition_t = type { i32, ptr }

@mbedtls_cipher_definitions = external global [0 x %struct.mbedtls_cipher_definition_t], align 8

; Function Attrs: mustprogress nounwind uwtable
define hidden ptr @mbedtls_cipher_info_from_type(i32 noundef %0) #0 {
  %2 = alloca ptr, align 8
  %3 = alloca i32, align 4
  %4 = alloca ptr, align 8
  %5 = alloca i32, align 4
  store i32 %0, ptr %3, align 4, !tbaa !17
  call void @llvm.lifetime.start.p0(i64 8, ptr %4) #8
  store ptr @mbedtls_cipher_definitions, ptr %4, align 8, !tbaa !7
  br label %6

6:                                                ; preds = %22, %1
  %7 = load ptr, ptr %4, align 8, !tbaa !7
  %8 = getelementptr inbounds nuw %struct.mbedtls_cipher_definition_t, ptr %7, i32 0, i32 1
  %9 = load ptr, ptr %8, align 8, !tbaa !18
  %10 = icmp ne ptr %9, null
  br i1 %10, label %11, label %25

11:                                               ; preds = %6
  %12 = load ptr, ptr %4, align 8, !tbaa !7
  %13 = getelementptr inbounds nuw %struct.mbedtls_cipher_definition_t, ptr %12, i32 0, i32 0
  %14 = load i32, ptr %13, align 8, !tbaa !11
  %15 = load i32, ptr %3, align 4, !tbaa !17
  %16 = icmp eq i32 %14, %15
  br i1 %16, label %17, label %21

17:                                               ; preds = %11
  %18 = load ptr, ptr %4, align 8, !tbaa !7
  %19 = getelementptr inbounds nuw %struct.mbedtls_cipher_definition_t, ptr %18, i32 0, i32 1
  %20 = load ptr, ptr %19, align 8, !tbaa !18
  store ptr %20, ptr %2, align 8
  store i32 1, ptr %5, align 4
  br label %26

21:                                               ; preds = %11
  br label %22

22:                                               ; preds = %21
  %23 = load ptr, ptr %4, align 8, !tbaa !7
  %24 = getelementptr inbounds nuw %struct.mbedtls_cipher_definition_t, ptr %23, i32 1
  store ptr %24, ptr %4, align 8, !tbaa !7
  br label %6, !llvm.loop !19

25:                                               ; preds = %6
  store ptr null, ptr %2, align 8
  store i32 1, ptr %5, align 4
  br label %26

26:                                               ; preds = %25, %17
  call void @llvm.lifetime.end.p0(i64 8, ptr %4) #8
  %27 = load ptr, ptr %2, align 8
  ret ptr %27
}